target datalayout = "e-m:e-p270:32:32-p271:32:32-p272:64:64-i64:64-i128:128-f80:128-n8:16:32:64-S128"
target triple = "x86_64-unknown-linux-gnu"

%"class.std::vector.86" = type { %"struct.std::_Vector_base.87" }
%"struct.std::_Vector_base.87" = type { %"struct.std::_Vector_base<unsigned long, std::allocator<unsigned long>>::_Vector_impl" }
%"struct.std::_Vector_base<unsigned long, std::allocator<unsigned long>>::_Vector_impl" = type { %"struct.std::_Vector_base<unsigned long, std::allocator<unsigned long>>::_Vector_impl_data" }
%"struct.std::_Vector_base<unsigned long, std::allocator<unsigned long>>::_Vector_impl_data" = type { ptr, ptr, ptr }
%"class.facebook::velox::DecodedVector" = type { i32, ptr, ptr, ptr, %"class.std::optional.125", ptr, i8, i8, i8, i8, i8, i32, %"class.std::vector.133", %"class.std::vector.86" }
%"class.std::optional.125" = type { %"struct.std::_Optional_base.126" }
%"struct.std::_Optional_base.126" = type { %"struct.std::_Optional_payload.128" }
%"struct.std::_Optional_payload.128" = type { %"struct.std::_Optional_payload_base.base.130", [7 x i8] }
%"struct.std::_Optional_payload_base.base.130" = type <{ %"union.std::_Optional_payload_base<const unsigned long *>::_Storage", i8 }>
%"union.std::_Optional_payload_base<const unsigned long *>::_Storage" = type { ptr }
%"class.std::vector.133" = type { %"struct.std::_Vector_base.134" }
%"struct.std::_Vector_base.134" = type { %"struct.std::_Vector_base<int, std::allocator<int>>::_Vector_impl" }
%"struct.std::_Vector_base<int, std::allocator<int>>::_Vector_impl" = type { %"struct.std::_Vector_base<int, std::allocator<int>>::_Vector_impl_data" }
%"struct.std::_Vector_base<int, std::allocator<int>>::_Vector_impl_data" = type { ptr, ptr, ptr }
%class.anon.954 = type { ptr, ptr, ptr, ptr, ptr, ptr }
%class.anon.958 = type { i8, ptr, %class.anon.954 }

; Function Attrs: mustprogress nounwind uwtable
define linkonce_odr noundef i32 @_ZNK8facebook5velox13DecodedVector5indexEi(ptr noundef nonnull align 8 dereferenceable(120) %this, i32 noundef %idx) #3 comdat align 2 {
entry:
  %retval = alloca i32, align 4
  %this.addr = alloca ptr, align 8
  %idx.addr = alloca i32, align 4
  store ptr %this, ptr %this.addr, align 8
  store i32 %idx, ptr %idx.addr, align 4
  %this1 = load ptr, ptr %this.addr, align 8
  %isIdentityMapping_ = getelementptr inbounds %"class.facebook::velox::DecodedVector", ptr %this1, i32 0, i32 8
  %0 = load i8, ptr %isIdentityMapping_, align 2
  %tobool = trunc i8 %0 to i1
  br i1 %tobool, label %if.then, label %if.end

if.then:                                          ; preds = %entry
  %1 = load i32, ptr %idx.addr, align 4
  store i32 %1, ptr %retval, align 4
  br label %return

if.end:                                           ; preds = %entry
  %isConstantMapping_ = getelementptr inbounds %"class.facebook::velox::DecodedVector", ptr %this1, i32 0, i32 9
  %2 = load i8, ptr %isConstantMapping_, align 1
  %tobool2 = trunc i8 %2 to i1
  br i1 %tobool2, label %if.then3, label %if.end4

if.then3:                                         ; preds = %if.end
  %constantIndex_ = getelementptr inbounds %"class.facebook::velox::DecodedVector", ptr %this1, i32 0, i32 11
  %3 = load i32, ptr %constantIndex_, align 8
  store i32 %3, ptr %retval, align 4
  br label %return

if.end4:                                          ; preds = %if.end
  %indices_ = getelementptr inbounds %"class.facebook::velox::DecodedVector", ptr %this1, i32 0, i32 1
  %4 = load ptr, ptr %indices_, align 8
  %5 = load i32, ptr %idx.addr, align 4
  %idxprom = sext i32 %5 to i64
  %arrayidx = getelementptr inbounds i32, ptr %4, i64 %idxprom
  %6 = load i32, ptr %arrayidx, align 4
  store i32 %6, ptr %retval, align 4
  br label %return

return:                                           ; preds = %if.end4, %if.then3, %if.then
  %7 = load i32, ptr %retval, align 4
  ret i32 %7
}

; Function Attrs: mustprogress uwtable
define internal void @_ZZNK8facebook5velox9functions12_GLOBAL__N_128ArrayIntersectExceptFunctionILb1EaE5applyERKNS0_17SelectivityVectorERSt6vectorISt10shared_ptrINS0_10BaseVectorEESaISB_EERKS9_IKNS0_4TypeEERNS0_4exec7EvalCtxERSB_ENKUliE0_clEi(ptr noundef nonnull align 8 dereferenceable(48) %this, i32 noundef %row) #0 align 2 {
entry:
  %this.addr = alloca ptr, align 8
  %row.addr = alloca i32, align 4
  %idx = alloca i32, align 4
  store ptr %this, ptr %this.addr, align 8
  store i32 %row, ptr %row.addr, align 4
  %this1 = load ptr, ptr %this.addr, align 8
  %0 = getelementptr inbounds %class.anon.954, ptr %this1, i32 0, i32 0
  %1 = load ptr, ptr %0, align 8
  %call = call noundef ptr @_ZN8facebook5velox4exec18LocalDecodedVector3getEv(ptr noundef nonnull align 8 dereferenceable(16) %1)
  %2 = load i32, ptr %row.addr, align 4
  %call2 = call noundef i32 @_ZNK8facebook5velox13DecodedVector5indexEi(ptr noundef nonnull align 8 dereferenceable(120) %call, i32 noundef %2)
  store i32 %call2, ptr %idx, align 4
  %3 = getelementptr inbounds %class.anon.954, ptr %this1, i32 0, i32 1
  %4 = load ptr, ptr %3, align 8
  %5 = load ptr, ptr %4, align 8
  %6 = getelementptr inbounds %class.anon.954, ptr %this1, i32 0, i32 2
  %7 = load ptr, ptr %6, align 8
  %8 = load ptr, ptr %7, align 8
  %9 = load i32, ptr %idx, align 4
  %10 = getelementptr inbounds %class.anon.954, ptr %this1, i32 0, i32 3
  %11 = load ptr, ptr %10, align 8
  call void @_ZN8facebook5velox9functions12_GLOBAL__N_111generateSetIaNS0_13DecodedVectorEEEvPKNS0_11ArrayVectorEPKT0_iRNS2_11SetWithNullIT_EE(ptr noundef %5, ptr noundef %8, i32 noundef %9, ptr noundef nonnull align 8 dereferenceable(33) %11)
  %12 = getelementptr inbounds %class.anon.954, ptr %this1, i32 0, i32 4
  %13 = load ptr, ptr %12, align 8
  %14 = load i32, ptr %row.addr, align 4
  %15 = getelementptr inbounds %class.anon.954, ptr %this1, i32 0, i32 3
  %16 = load ptr, ptr %15, align 8
  %17 = getelementptr inbounds %class.anon.954, ptr %this1, i32 0, i32 5
  %18 = load ptr, ptr %17, align 8
  call void @_ZZNK8facebook5velox9functions12_GLOBAL__N_128ArrayIntersectExceptFunctionILb1EaE5applyERKNS0_17SelectivityVectorERSt6vectorISt10shared_ptrINS0_10BaseVectorEESaISB_EERKS9_IKNS0_4TypeEERNS0_4exec7EvalCtxERSB_ENKUliRKNS2_11SetWithNullIaEERSP_E_clEiSR_SS_(ptr noundef nonnull align 8 dereferenceable(64) %13, i32 noundef %14, ptr noundef nonnull align 8 dereferenceable(33) %16, ptr noundef nonnull align 8 dereferenceable(33) %18)
  ret void
}

; Function Attrs: mustprogress uwtable
define internal void @_ZZN8facebook5velox4bits10forEachBitIZNKS0_9functions12_GLOBAL__N_128ArrayIntersectExceptFunctionILb1EaE5applyERKNS0_17SelectivityVectorERSt6vectorISt10shared_ptrINS0_10BaseVectorEESaISD_EERKSB_IKNS0_4TypeEERNS0_4exec7EvalCtxERSD_EUliE0_EEvPKmiibT_ENKUlimE_clEim(ptr noundef nonnull align 8 dereferenceable(64) %this, i32 noundef %idx, i64 noundef %mask) #0 align 2 {
entry:
  %this.addr = alloca ptr, align 8
  %idx.addr = alloca i32, align 4
  %mask.addr = alloca i64, align 8
  %word = alloca i64, align 8
  store ptr %this, ptr %this.addr, align 8
  store i32 %idx, ptr %idx.addr, align 4
  store i64 %mask, ptr %mask.addr, align 8
  %this1 = load ptr, ptr %this.addr, align 8
  %0 = getelementptr inbounds %class.anon.958, ptr %this1, i32 0, i32 0
  %1 = load i8, ptr %0, align 8
  %tobool = trunc i8 %1 to i1
  br i1 %tobool, label %cond.true, label %cond.false

cond.true:                                        ; preds = %entry
  %2 = getelementptr inbounds %class.anon.958, ptr %this1, i32 0, i32 1
  %3 = load ptr, ptr %2, align 8
  %4 = load i32, ptr %idx.addr, align 4
  %idxprom = sext i32 %4 to i64
  %arrayidx = getelementptr inbounds i64, ptr %3, i64 %idxprom
  %5 = load i64, ptr %arrayidx, align 8
  br label %cond.end

cond.false:                                       ; preds = %entry
  %6 = getelementptr inbounds %class.anon.958, ptr %this1, i32 0, i32 1
  %7 = load ptr, ptr %6, align 8
  %8 = load i32, ptr %idx.addr, align 4
  %idxprom2 = sext i32 %8 to i64
  %arrayidx3 = getelementptr inbounds i64, ptr %7, i64 %idxprom2
  %9 = load i64, ptr %arrayidx3, align 8
  %not = xor i64 %9, -1
  br label %cond.end

cond.end:                                         ; preds = %cond.false, %cond.true
  %cond = phi i64 [ %5, %cond.true ], [ %not, %cond.false ]
  %10 = load i64, ptr %mask.addr, align 8
  %and = and i64 %cond, %10
  store i64 %and, ptr %word, align 8
  %11 = load i64, ptr %word, align 8
  %tobool4 = icmp ne i64 %11, 0
  br i1 %tobool4, label %if.end, label %if.then

if.then:                                          ; preds = %cond.end
  br label %while.end

if.end:                                           ; preds = %cond.end
  br label %while.cond

while.cond:                                       ; preds = %while.body, %if.end
  %12 = load i64, ptr %word, align 8
  %tobool5 = icmp ne i64 %12, 0
  br i1 %tobool5, label %while.body, label %while.end

while.body:                                       ; preds = %while.cond
  %13 = getelementptr inbounds %class.anon.958, ptr %this1, i32 0, i32 2
  %14 = load i32, ptr %idx.addr, align 4
  %mul = mul nsw i32 %14, 64
  %15 = load i64, ptr %word, align 8
  %16 = call i64 @llvm.cttz.i64(i64 %15, i1 true)
  %cast = trunc i64 %16 to i32
  %add = add nsw i32 %mul, %cast
  call void @_ZZNK8facebook5velox9functions12_GLOBAL__N_128ArrayIntersectExceptFunctionILb1EaE5applyERKNS0_17SelectivityVectorERSt6vectorISt10shared_ptrINS0_10BaseVectorEESaISB_EERKS9_IKNS0_4TypeEERNS0_4exec7EvalCtxERSB_ENKUliE0_clEi(ptr noundef nonnull align 8 dereferenceable(48) %13, i32 noundef %add)
  %17 = load i64, ptr %word, align 8
  %sub = sub i64 %17, 1
  %18 = load i64, ptr %word, align 8
  %and6 = and i64 %18, %sub
  store i64 %and6, ptr %word, align 8
  br label %while.cond, !llvm.loop !338

while.end:                                        ; preds = %while.cond, %if.then
  ret void
}